target datalayout = "e-m:e-p270:32:32-p271:32:32-p272:64:64-i64:64-i128:128-f80:128-n8:16:32:64-S128"
target triple = "x86_64-unknown-linux-gnu"

%"class.OpenColorIO_v2_4dev::ArrayT" = type { %"class.OpenColorIO_v2_4dev::ArrayBase", i64, i64, %"class.std::vector" }
%"class.OpenColorIO_v2_4dev::ArrayBase" = type { ptr }
%"class.std::vector" = type { %"struct.std::_Vector_base" }
%"struct.std::_Vector_base" = type { %"struct.std::_Vector_base<float, std::allocator<float>>::_Vector_impl" }
%"struct.std::_Vector_base<float, std::allocator<float>>::_Vector_impl" = type { %"struct.std::_Vector_base<float, std::allocator<float>>::_Vector_impl_data" }
%"struct.std::_Vector_base<float, std::allocator<float>>::_Vector_impl_data" = type { ptr, ptr, ptr }
%"class.std::__cxx11::basic_string" = type { %"struct.std::__cxx11::basic_string<char>::_Alloc_hider", i64, %union.anon.3 }
%"struct.std::__cxx11::basic_string<char>::_Alloc_hider" = type { ptr }
%union.anon.3 = type { i64, [8 x i8] }
%"class.OpenColorIO_v2_4dev::Lut1DOpData" = type <{ %"class.OpenColorIO_v2_4dev::OpData", i32, [4 x i8], %"class.OpenColorIO_v2_4dev::Lut1DOpData::Lut3by1DArray", i32, i32, i32, [4 x i8], [3 x %"struct.OpenColorIO_v2_4dev::Lut1DOpData::ComponentProperties"], i32, [4 x i8] }>
%"class.OpenColorIO_v2_4dev::OpData" = type { ptr, %"class.std::mutex", %"class.OpenColorIO_v2_4dev::FormatMetadataImpl" }
%"class.std::mutex" = type { %"class.std::__mutex_base" }
%"class.std::__mutex_base" = type { %union.pthread_mutex_t }
%union.pthread_mutex_t = type { %struct.__pthread_mutex_s }
%struct.__pthread_mutex_s = type { i32, i32, i32, i32, i32, i16, i16, %struct.__pthread_internal_list }
%struct.__pthread_internal_list = type { ptr, ptr }
%"class.OpenColorIO_v2_4dev::FormatMetadataImpl" = type { %"class.OpenColorIO_v2_4dev::FormatMetadata", %"class.std::__cxx11::basic_string", %"class.std::__cxx11::basic_string", %"class.std::vector.4", %"class.std::vector.9" }
%"class.OpenColorIO_v2_4dev::FormatMetadata" = type { ptr }
%"class.std::vector.4" = type { %"struct.std::_Vector_base.5" }
%"struct.std::_Vector_base.5" = type { %"struct.std::_Vector_base<std::pair<std::__cxx11::basic_string<char>, std::__cxx11::basic_string<char>>, std::allocator<std::pair<std::__cxx11::basic_string<char>, std::__cxx11::basic_string<char>>>>::_Vector_impl" }
%"struct.std::_Vector_base<std::pair<std::__cxx11::basic_string<char>, std::__cxx11::basic_string<char>>, std::allocator<std::pair<std::__cxx11::basic_string<char>, std::__cxx11::basic_string<char>>>>::_Vector_impl" = type { %"struct.std::_Vector_base<std::pair<std::__cxx11::basic_string<char>, std::__cxx11::basic_string<char>>, std::allocator<std::pair<std::__cxx11::basic_string<char>, std::__cxx11::basic_string<char>>>>::_Vector_impl_data" }
%"struct.std::_Vector_base<std::pair<std::__cxx11::basic_string<char>, std::__cxx11::basic_string<char>>, std::allocator<std::pair<std::__cxx11::basic_string<char>, std::__cxx11::basic_string<char>>>>::_Vector_impl_data" = type { ptr, ptr, ptr }
%"class.std::vector.9" = type { %"struct.std::_Vector_base.10" }
%"struct.std::_Vector_base.10" = type { %"struct.std::_Vector_base<OpenColorIO_v2_4dev::FormatMetadataImpl, std::allocator<OpenColorIO_v2_4dev::FormatMetadataImpl>>::_Vector_impl" }
%"struct.std::_Vector_base<OpenColorIO_v2_4dev::FormatMetadataImpl, std::allocator<OpenColorIO_v2_4dev::FormatMetadataImpl>>::_Vector_impl" = type { %"struct.std::_Vector_base<OpenColorIO_v2_4dev::FormatMetadataImpl, std::allocator<OpenColorIO_v2_4dev::FormatMetadataImpl>>::_Vector_impl_data" }
%"struct.std::_Vector_base<OpenColorIO_v2_4dev::FormatMetadataImpl, std::allocator<OpenColorIO_v2_4dev::FormatMetadataImpl>>::_Vector_impl_data" = type { ptr, ptr, ptr }
%"class.OpenColorIO_v2_4dev::Lut1DOpData::Lut3by1DArray" = type { %"class.OpenColorIO_v2_4dev::ArrayT" }
%"struct.OpenColorIO_v2_4dev::Lut1DOpData::ComponentProperties" = type { i8, i64, i64, i64, i64 }

; Function Attrs: mustprogress nounwind uwtable
define linkonce_odr noundef zeroext i1 @_ZSt5isnanf(float noundef %__x) #5 comdat {
entry:
  %__x.addr = alloca float, align 4
  store float %__x, ptr %__x.addr, align 4
  %0 = load float, ptr %__x.addr, align 4
  %1 = call i1 @llvm.is.fpclass.f32(float %0, i32 3)
  ret i1 %1
}

; Function Attrs: mustprogress uwtable
define linkonce_odr hidden noundef zeroext i1 @_ZN19OpenColorIO_v2_4dev5IsNanIfEEbT_(float noundef %val) #4 comdat {
entry:
  %val.addr = alloca float, align 4
  store float %val, ptr %val.addr, align 4
  %0 = load float, ptr %val.addr, align 4
  %call = call noundef zeroext i1 @_ZSt5isnanf(float noundef %0)
  ret i1 %call
}

; Function Attrs: mustprogress nounwind uwtable
define linkonce_odr hidden noundef nonnull align 4 dereferenceable(4) ptr @_ZNSt6vectorIfSaIfEEixEm(ptr noundef nonnull align 8 dereferenceable(24) %this, i64 noundef %__n) #5 comdat align 2 {
entry:
  %this.addr = alloca ptr, align 8
  %__n.addr = alloca i64, align 8
  store ptr %this, ptr %this.addr, align 8
  store i64 %__n, ptr %__n.addr, align 8
  %this1 = load ptr, ptr %this.addr, align 8
  %_M_impl = getelementptr inbounds %"struct.std::_Vector_base", ptr %this1, i32 0, i32 0
  %_M_start = getelementptr inbounds %"struct.std::_Vector_base<float, std::allocator<float>>::_Vector_impl_data", ptr %_M_impl, i32 0, i32 0
  %0 = load ptr, ptr %_M_start, align 8
  %1 = load i64, ptr %__n.addr, align 8
  %add.ptr = getelementptr inbounds float, ptr %0, i64 %1
  ret ptr %add.ptr
}

; Function Attrs: mustprogress uwtable
define linkonce_odr hidden void @_ZN19OpenColorIO_v2_4dev6ArrayTIfE26adjustColorComponentNumberEv(ptr noundef nonnull align 8 dereferenceable(48) %this) #4 comdat align 2 {
entry:
  %this.addr = alloca ptr, align 8
  %sameCoeff = alloca i8, align 1
  %idx = alloca i64, align 8
  store ptr %this, ptr %this.addr, align 8
  %this1 = load ptr, ptr %this.addr, align 8
  %m_numColorComponents = getelementptr inbounds %"class.OpenColorIO_v2_4dev::ArrayT", ptr %this1, i32 0, i32 2
  %0 = load i64, ptr %m_numColorComponents, align 8
  %cmp = icmp eq i64 %0, 3
  br i1 %cmp, label %if.then, label %if.end37

if.then:                                          ; preds = %entry
  store i8 1, ptr %sameCoeff, align 1
  store i64 0, ptr %idx, align 8
  br label %for.cond

for.cond:                                         ; preds = %for.inc, %if.then
  %1 = load i64, ptr %idx, align 8
  %m_length = getelementptr inbounds %"class.OpenColorIO_v2_4dev::ArrayT", ptr %this1, i32 0, i32 1
  %2 = load i64, ptr %m_length, align 8
  %cmp2 = icmp ult i64 %1, %2
  br i1 %cmp2, label %land.rhs, label %land.end

land.rhs:                                         ; preds = %for.cond
  %3 = load i8, ptr %sameCoeff, align 1
  %tobool = trunc i8 %3 to i1
  br label %land.end

land.end:                                         ; preds = %land.rhs, %for.cond
  %4 = phi i1 [ false, %for.cond ], [ %tobool, %land.rhs ]
  br i1 %4, label %for.body, label %for.end

for.body:                                         ; preds = %land.end
  %m_data = getelementptr inbounds %"class.OpenColorIO_v2_4dev::ArrayT", ptr %this1, i32 0, i32 3
  %5 = load i64, ptr %idx, align 8
  %mul = mul i64 %5, 3
  %call = call noundef nonnull align 4 dereferenceable(4) ptr @_ZNSt6vectorIfSaIfEEixEm(ptr noundef nonnull align 8 dereferenceable(24) %m_data, i64 noundef %mul) #3
  %6 = load float, ptr %call, align 4
  %call3 = call noundef zeroext i1 @_ZN19OpenColorIO_v2_4dev5IsNanIfEEbT_(float noundef %6)
  br i1 %call3, label %land.lhs.true, label %if.end

land.lhs.true:                                    ; preds = %for.body
  %m_data4 = getelementptr inbounds %"class.OpenColorIO_v2_4dev::ArrayT", ptr %this1, i32 0, i32 3
  %7 = load i64, ptr %idx, align 8
  %mul5 = mul i64 %7, 3
  %add = add i64 %mul5, 1
  %call6 = call noundef nonnull align 4 dereferenceable(4) ptr @_ZNSt6vectorIfSaIfEEixEm(ptr noundef nonnull align 8 dereferenceable(24) %m_data4, i64 noundef %add) #3
  %8 = load float, ptr %call6, align 4
  %call7 = call noundef zeroext i1 @_ZN19OpenColorIO_v2_4dev5IsNanIfEEbT_(float noundef %8)
  br i1 %call7, label %land.lhs.true8, label %if.end

land.lhs.true8:                                   ; preds = %land.lhs.true
  %m_data9 = getelementptr inbounds %"class.OpenColorIO_v2_4dev::ArrayT", ptr %this1, i32 0, i32 3
  %9 = load i64, ptr %idx, align 8
  %mul10 = mul i64 %9, 3
  %add11 = add i64 %mul10, 2
  %call12 = call noundef nonnull align 4 dereferenceable(4) ptr @_ZNSt6vectorIfSaIfEEixEm(ptr noundef nonnull align 8 dereferenceable(24) %m_data9, i64 noundef %add11) #3
  %10 = load float, ptr %call12, align 4
  %call13 = call noundef zeroext i1 @_ZN19OpenColorIO_v2_4dev5IsNanIfEEbT_(float noundef %10)
  br i1 %call13, label %if.then14, label %if.end

if.then14:                                        ; preds = %land.lhs.true8
  br label %for.inc

if.end:                                           ; preds = %land.lhs.true8, %land.lhs.true, %for.body
  %m_data15 = getelementptr inbounds %"class.OpenColorIO_v2_4dev::ArrayT", ptr %this1, i32 0, i32 3
  %11 = load i64, ptr %idx, align 8
  %mul16 = mul i64 %11, 3
  %call17 = call noundef nonnull align 4 dereferenceable(4) ptr @_ZNSt6vectorIfSaIfEEixEm(ptr noundef nonnull align 8 dereferenceable(24) %m_data15, i64 noundef %mul16) #3
  %12 = load float, ptr %call17, align 4
  %m_data18 = getelementptr inbounds %"class.OpenColorIO_v2_4dev::ArrayT", ptr %this1, i32 0, i32 3
  %13 = load i64, ptr %idx, align 8
  %mul19 = mul i64 %13, 3
  %add20 = add i64 %mul19, 1
  %call21 = call noundef nonnull align 4 dereferenceable(4) ptr @_ZNSt6vectorIfSaIfEEixEm(ptr noundef nonnull align 8 dereferenceable(24) %m_data18, i64 noundef %add20) #3
  %14 = load float, ptr %call21, align 4
  %cmp22 = fcmp une float %12, %14
  br i1 %cmp22, label %if.then31, label %lor.lhs.false

lor.lhs.false:                                    ; preds = %if.end
  %m_data23 = getelementptr inbounds %"class.OpenColorIO_v2_4dev::ArrayT", ptr %this1, i32 0, i32 3
  %15 = load i64, ptr %idx, align 8
  %mul24 = mul i64 %15, 3
  %call25 = call noundef nonnull align 4 dereferenceable(4) ptr @_ZNSt6vectorIfSaIfEEixEm(ptr noundef nonnull align 8 dereferenceable(24) %m_data23, i64 noundef %mul24) #3
  %16 = load float, ptr %call25, align 4
  %m_data26 = getelementptr inbounds %"class.OpenColorIO_v2_4dev::ArrayT", ptr %this1, i32 0, i32 3
  %17 = load i64, ptr %idx, align 8
  %mul27 = mul i64 %17, 3
  %add28 = add i64 %mul27, 2
  %call29 = call noundef nonnull align 4 dereferenceable(4) ptr @_ZNSt6vectorIfSaIfEEixEm(ptr noundef nonnull align 8 dereferenceable(24) %m_data26, i64 noundef %add28) #3
  %18 = load float, ptr %call29, align 4
  %cmp30 = fcmp une float %16, %18
  br i1 %cmp30, label %if.then31, label %if.end32

if.then31:                                        ; preds = %lor.lhs.false, %if.end
  store i8 0, ptr %sameCoeff, align 1
  br label %for.end

if.end32:                                         ; preds = %lor.lhs.false
  br label %for.inc

for.inc:                                          ; preds = %if.end32, %if.then14
  %19 = load i64, ptr %idx, align 8
  %inc = add i64 %19, 1
  store i64 %inc, ptr %idx, align 8
  br label %for.cond, !llvm.loop !24

for.end:                                          ; preds = %if.then31, %land.end
  %20 = load i8, ptr %sameCoeff, align 1
  %tobool33 = trunc i8 %20 to i1
  br i1 %tobool33, label %if.then34, label %if.end36

if.then34:                                        ; preds = %for.end
  %m_numColorComponents35 = getelementptr inbounds %"class.OpenColorIO_v2_4dev::ArrayT", ptr %this1, i32 0, i32 2
  store i64 1, ptr %m_numColorComponents35, align 8
  br label %if.end36

if.end36:                                         ; preds = %if.then34, %for.end
  br label %if.end37

if.end37:                                         ; preds = %if.end36, %entry
  ret void
}

; Function Attrs: mustprogress uwtable
define hidden void @_ZN19OpenColorIO_v2_4dev11Lut1DOpData8finalizeEv(ptr noundef nonnull align 8 dereferenceable(364) %this) #4 align 2 {
entry:
  %this.addr = alloca ptr, align 8
  store ptr %this, ptr %this.addr, align 8
  %this1 = load ptr, ptr %this.addr, align 8
  %m_direction = getelementptr inbounds %"class.OpenColorIO_v2_4dev::Lut1DOpData", ptr %this1, i32 0, i32 6
  %0 = load i32, ptr %m_direction, align 8
  %cmp = icmp eq i32 %0, 1
  br i1 %cmp, label %if.then, label %if.end

if.then:                                          ; preds = %entry
  call void @_ZN19OpenColorIO_v2_4dev11Lut1DOpData21initializeFromForwardEv(ptr noundef nonnull align 8 dereferenceable(364) %this1)
  br label %if.end

if.end:                                           ; preds = %if.then, %entry
  %m_array = getelementptr inbounds %"class.OpenColorIO_v2_4dev::Lut1DOpData", ptr %this1, i32 0, i32 3
  call void @_ZN19OpenColorIO_v2_4dev6ArrayTIfE26adjustColorComponentNumberEv(ptr noundef nonnull align 8 dereferenceable(48) %m_array)
  ret void
}