; Function Attrs: mustprogress uwtable
define hidden void @_ZN19OpenColorIO_v2_4dev11Lut1DOpData8finalizeEv(ptr noundef nonnull align 8 dereferenceable(364) %this) local_unnamed_addr #3 align 2 {
entry:
  %m_direction = getelementptr inbounds i8, ptr %this, i64 232
  %0 = load i32, ptr %m_direction, align 8
  %cmp = icmp eq i32 %0, 1
  br i1 %cmp, label %if.then, label %if.end

if.then:                                          ; preds = %entry
  tail call void @_ZN19OpenColorIO_v2_4dev11Lut1DOpData21initializeFromForwardEv(ptr noundef nonnull align 8 dereferenceable(364) %this)
  br label %if.end

if.end:                                           ; preds = %if.then, %entry
  %m_numColorComponents.i = getelementptr inbounds i8, ptr %this, i64 192
  %1 = load i64, ptr %m_numColorComponents.i, align 8
  %cmp.i = icmp eq i64 %1, 3
  br i1 %cmp.i, label %for.cond.preheader.i, label %_ZN19OpenColorIO_v2_4dev6ArrayTIfE26adjustColorComponentNumberEv.exit

for.cond.preheader.i:                             ; preds = %if.end
  %m_length.i = getelementptr inbounds i8, ptr %this, i64 184
  %2 = load i64, ptr %m_length.i, align 8
  %cmp2.not16.not.i = icmp eq i64 %2, 0
  br i1 %cmp2.not16.not.i, label %if.then34.i, label %for.body.lr.ph.i

for.body.lr.ph.i:                                 ; preds = %for.cond.preheader.i
  %m_data.i = getelementptr inbounds i8, ptr %this, i64 200
  %3 = load ptr, ptr %m_data.i, align 8
  %invariant.gep.i = getelementptr i8, ptr %3, i64 4
  %invariant.gep18.i = getelementptr i8, ptr %3, i64 8
  br label %for.body.i

for.body.i:                                       ; preds = %for.inc.i, %for.body.lr.ph.i
  %idx.017.i = phi i64 [ 0, %for.body.lr.ph.i ], [ %inc.i, %for.inc.i ]
  %mul.i = mul i64 %idx.017.i, 3
  %add.ptr.i.i = getelementptr inbounds float, ptr %3, i64 %mul.i
  %4 = load float, ptr %add.ptr.i.i, align 4
  %5 = fcmp uno float %4, 0.000000e+00
  %gep.i = getelementptr float, ptr %invariant.gep.i, i64 %mul.i
  %6 = load float, ptr %gep.i, align 4
  %7 = fcmp uno float %6, 0.000000e+00
  %or.cond.i = select i1 %5, i1 %7, i1 false
  br i1 %or.cond.i, label %land.lhs.true8.i, label %if.end.i

land.lhs.true8.i:                                 ; preds = %for.body.i
  %gep19.i = getelementptr float, ptr %invariant.gep18.i, i64 %mul.i
  %8 = load float, ptr %gep19.i, align 4
  %9 = fcmp uno float %8, 0.000000e+00
  br i1 %9, label %for.inc.i, label %if.end.i

if.end.i:                                         ; preds = %land.lhs.true8.i, %for.body.i
  %cmp22.i = fcmp une float %4, %6
  br i1 %cmp22.i, label %_ZN19OpenColorIO_v2_4dev6ArrayTIfE26adjustColorComponentNumberEv.exit, label %lor.lhs.false.i

lor.lhs.false.i:                                  ; preds = %if.end.i
  %gep23.i = getelementptr float, ptr %invariant.gep18.i, i64 %mul.i
  %10 = load float, ptr %gep23.i, align 4
  %cmp30.i = fcmp une float %4, %10
  br i1 %cmp30.i, label %_ZN19OpenColorIO_v2_4dev6ArrayTIfE26adjustColorComponentNumberEv.exit, label %for.inc.i

for.inc.i:                                        ; preds = %lor.lhs.false.i, %land.lhs.true8.i
  %inc.i = add nuw i64 %idx.017.i, 1
  %exitcond.not.i = icmp eq i64 %inc.i, %2
  br i1 %exitcond.not.i, label %if.then34.i, label %for.body.i, !llvm.loop !39

if.then34.i:                                      ; preds = %for.inc.i, %for.cond.preheader.i
  store i64 1, ptr %m_numColorComponents.i, align 8
  br label %_ZN19OpenColorIO_v2_4dev6ArrayTIfE26adjustColorComponentNumberEv.exit

_ZN19OpenColorIO_v2_4dev6ArrayTIfE26adjustColorComponentNumberEv.exit: ; preds = %if.end.i, %lor.lhs.false.i, %if.end, %if.then34.i
  ret void
}